; Function Attrs: mustprogress uwtable
define void @_ZN7openvdb5v11_08GridBase8clipGridERKNS0_4math4BBoxINS2_4Vec3IdEEEE(ptr noundef nonnull align 8 dereferenceable(72) %this, ptr noundef nonnull align 8 dereferenceable(48) %worldBBox) local_unnamed_addr #5 align 2 {
entry:
  %indexBBox = alloca %"class.openvdb::v11_0::math::CoordBBox", align 4
  %mTransform.i = getelementptr inbounds i8, ptr %this, i64 56
  %0 = load ptr, ptr %mTransform.i, align 8
  call void @_ZNK7openvdb5v11_04math9Transform24worldToIndexNodeCenteredERKNS1_4BBoxINS1_4Vec3IdEEEE(ptr nonnull sret(%"class.openvdb::v11_0::math::CoordBBox") align 4 %indexBBox, ptr noundef nonnull align 8 dereferenceable(16) %0, ptr noundef nonnull align 8 dereferenceable(48) %worldBBox)
  %vtable = load ptr, ptr %this, align 8
  %vfn = getelementptr inbounds i8, ptr %vtable, i64 144
  %1 = load ptr, ptr %vfn, align 8
  call void %1(ptr noundef nonnull align 8 dereferenceable(72) %this, ptr noundef nonnull align 4 dereferenceable(24) %indexBBox)
  ret void
}